target datalayout = "e-m:e-p270:32:32-p271:32:32-p272:64:64-i64:64-i128:128-f80:128-n8:16:32:64-S128"
target triple = "x86_64-pc-linux-gnu"

; Function Attrs: nounwind uwtable
define internal ptr @pkey_get_dsa(ptr noundef %0, ptr noundef %1) #0 {
  %3 = alloca ptr, align 8
  %4 = alloca ptr, align 8
  %5 = alloca ptr, align 8
  %6 = alloca ptr, align 8
  %7 = alloca i32, align 4
  store ptr %0, ptr %4, align 8, !tbaa !33
  store ptr %1, ptr %5, align 8, !tbaa !43
  call void @llvm.lifetime.start.p0(i64 8, ptr %6) #4
  %8 = load ptr, ptr %4, align 8, !tbaa !33
  %9 = icmp ne ptr %8, null
  br i1 %9, label %11, label %10

10:                                               ; preds = %2
  store ptr null, ptr %3, align 8
  store i32 1, ptr %7, align 4
  br label %28

11:                                               ; preds = %2
  %12 = load ptr, ptr %4, align 8, !tbaa !33
  %13 = call ptr @EVP_PKEY_get1_DSA(ptr noundef %12)
  store ptr %13, ptr %6, align 8, !tbaa !45
  %14 = load ptr, ptr %4, align 8, !tbaa !33
  call void @EVP_PKEY_free(ptr noundef %14)
  %15 = load ptr, ptr %6, align 8, !tbaa !45
  %16 = icmp ne ptr %15, null
  br i1 %16, label %18, label %17

17:                                               ; preds = %11
  store ptr null, ptr %3, align 8
  store i32 1, ptr %7, align 4
  br label %28

18:                                               ; preds = %11
  %19 = load ptr, ptr %5, align 8, !tbaa !43
  %20 = icmp ne ptr %19, null
  br i1 %20, label %21, label %26

21:                                               ; preds = %18
  %22 = load ptr, ptr %5, align 8, !tbaa !43
  %23 = load ptr, ptr %22, align 8, !tbaa !45
  call void @DSA_free(ptr noundef %23)
  %24 = load ptr, ptr %6, align 8, !tbaa !45
  %25 = load ptr, ptr %5, align 8, !tbaa !43
  store ptr %24, ptr %25, align 8, !tbaa !45
  br label %26

26:                                               ; preds = %21, %18
  %27 = load ptr, ptr %6, align 8, !tbaa !45
  store ptr %27, ptr %3, align 8
  store i32 1, ptr %7, align 4
  br label %28

28:                                               ; preds = %26, %17, %10
  call void @llvm.lifetime.end.p0(i64 8, ptr %6) #4
  %29 = load ptr, ptr %3, align 8
  ret ptr %29
}

; Function Attrs: nounwind uwtable
define ptr @PEM_read_bio_DSAPrivateKey(ptr noundef %0, ptr noundef %1, ptr noundef %2, ptr noundef %3) #0 {
  %5 = alloca ptr, align 8
  %6 = alloca ptr, align 8
  %7 = alloca ptr, align 8
  %8 = alloca ptr, align 8
  %9 = alloca ptr, align 8
  store ptr %0, ptr %5, align 8, !tbaa !3
  store ptr %1, ptr %6, align 8, !tbaa !43
  store ptr %2, ptr %7, align 8, !tbaa !10
  store ptr %3, ptr %8, align 8, !tbaa !10
  call void @llvm.lifetime.start.p0(i64 8, ptr %9) #4
  %10 = load ptr, ptr %5, align 8, !tbaa !3
  %11 = load ptr, ptr %7, align 8, !tbaa !10
  %12 = load ptr, ptr %8, align 8, !tbaa !10
  %13 = call ptr @PEM_read_bio_PrivateKey(ptr noundef %10, ptr noundef null, ptr noundef %11, ptr noundef %12)
  store ptr %13, ptr %9, align 8, !tbaa !33
  %14 = load ptr, ptr %9, align 8, !tbaa !33
  %15 = load ptr, ptr %6, align 8, !tbaa !43
  %16 = call ptr @pkey_get_dsa(ptr noundef %14, ptr noundef %15)
  call void @llvm.lifetime.end.p0(i64 8, ptr %9) #4
  ret ptr %16
}